target datalayout = "e-m:e-p270:32:32-p271:32:32-p272:64:64-i64:64-i128:128-f80:128-n8:16:32:64-S128"
target triple = "x86_64-pc-linux-gnu"

%struct.SDL_EVDEV_keyboard_state = type { i32, i8, i32, ptr, [9 x i8], i8, i32, ptr, i32, i8, i8, i8, i8, i8, [128 x i8], i32, ptr, ptr, ptr, ptr }

; Function Attrs: nounwind uwtable
define internal void @clr_vc_kbd_led(ptr noundef %0, i32 noundef %1) #0 {
  %3 = alloca ptr, align 8
  %4 = alloca i32, align 4
  store ptr %0, ptr %3, align 8
  store i32 %1, ptr %4, align 4
  %5 = load i32, ptr %4, align 4
  %6 = xor i32 %5, -1
  %7 = load ptr, ptr %3, align 8
  %8 = getelementptr inbounds nuw %struct.SDL_EVDEV_keyboard_state, ptr %7, i32 0, i32 12
  %9 = load i8, ptr %8, align 1
  %10 = zext i8 %9 to i32
  %11 = and i32 %10, %6
  %12 = trunc i32 %11 to i8
  store i8 %12, ptr %8, align 1
  %13 = load ptr, ptr %3, align 8
  %14 = getelementptr inbounds nuw %struct.SDL_EVDEV_keyboard_state, ptr %13, i32 0, i32 0
  %15 = load i32, ptr %14, align 8
  %16 = load ptr, ptr %3, align 8
  %17 = getelementptr inbounds nuw %struct.SDL_EVDEV_keyboard_state, ptr %16, i32 0, i32 12
  %18 = load i8, ptr %17, align 1
  %19 = zext i8 %18 to i64
  %20 = call i32 (i32, i64, ...) @ioctl(i32 noundef %15, i64 noundef 19250, i64 noundef %19) #7
  ret void
}

; Function Attrs: nounwind uwtable
define internal void @chg_vc_kbd_slock(ptr noundef %0, i32 noundef %1) #0 {
  %3 = alloca ptr, align 8
  %4 = alloca i32, align 4
  store ptr %0, ptr %3, align 8
  store i32 %1, ptr %4, align 4
  %5 = load i32, ptr %4, align 4
  %6 = shl i32 1, %5
  %7 = load ptr, ptr %3, align 8
  %8 = getelementptr inbounds nuw %struct.SDL_EVDEV_keyboard_state, ptr %7, i32 0, i32 11
  %9 = load i8, ptr %8, align 2
  %10 = zext i8 %9 to i32
  %11 = xor i32 %10, %6
  %12 = trunc i32 %11 to i8
  store i8 %12, ptr %8, align 2
  ret void
}

; Function Attrs: nounwind uwtable
define internal void @k_shift(ptr noundef %0, i8 noundef zeroext %1, i8 noundef signext %2) #0 {
  %4 = alloca ptr, align 8
  %5 = alloca i8, align 1
  %6 = alloca i8, align 1
  %7 = alloca i32, align 4
  %8 = alloca i32, align 4
  store ptr %0, ptr %4, align 8
  store i8 %1, ptr %5, align 1
  store i8 %2, ptr %6, align 1
  call void @llvm.lifetime.start.p0(i64 4, ptr %7) #7
  %9 = load ptr, ptr %4, align 8
  %10 = getelementptr inbounds nuw %struct.SDL_EVDEV_keyboard_state, ptr %9, i32 0, i32 13
  %11 = load i8, ptr %10, align 8
  %12 = sext i8 %11 to i32
  store i32 %12, ptr %7, align 4
  %13 = load ptr, ptr %4, align 8
  %14 = getelementptr inbounds nuw %struct.SDL_EVDEV_keyboard_state, ptr %13, i32 0, i32 9
  %15 = load i8, ptr %14, align 4, !range !3, !noundef !4
  %16 = trunc i8 %15 to i1
  br i1 %16, label %17, label %18

17:                                               ; preds = %3
  store i32 1, ptr %8, align 4
  br label %109

18:                                               ; preds = %3
  %19 = load i8, ptr %5, align 1
  %20 = zext i8 %19 to i32
  %21 = icmp eq i32 %20, 8
  br i1 %21, label %22, label %28

22:                                               ; preds = %18
  store i8 0, ptr %5, align 1
  %23 = load i8, ptr %6, align 1
  %24 = icmp ne i8 %23, 0
  br i1 %24, label %27, label %25

25:                                               ; preds = %22
  %26 = load ptr, ptr %4, align 8
  call void @clr_vc_kbd_led(ptr noundef %26, i32 noundef 4)
  br label %27

27:                                               ; preds = %25, %22
  br label %28

28:                                               ; preds = %27, %18
  %29 = load i8, ptr %6, align 1
  %30 = icmp ne i8 %29, 0
  br i1 %30, label %31, label %48

31:                                               ; preds = %28
  %32 = load ptr, ptr %4, align 8
  %33 = getelementptr inbounds nuw %struct.SDL_EVDEV_keyboard_state, ptr %32, i32 0, i32 4
  %34 = load i8, ptr %5, align 1
  %35 = zext i8 %34 to i64
  %36 = getelementptr inbounds nuw [9 x i8], ptr %33, i64 0, i64 %35
  %37 = load i8, ptr %36, align 1
  %38 = icmp ne i8 %37, 0
  br i1 %38, label %39, label %47

39:                                               ; preds = %31
  %40 = load ptr, ptr %4, align 8
  %41 = getelementptr inbounds nuw %struct.SDL_EVDEV_keyboard_state, ptr %40, i32 0, i32 4
  %42 = load i8, ptr %5, align 1
  %43 = zext i8 %42 to i64
  %44 = getelementptr inbounds nuw [9 x i8], ptr %41, i64 0, i64 %43
  %45 = load i8, ptr %44, align 1
  %46 = add i8 %45, -1
  store i8 %46, ptr %44, align 1
  br label %47

47:                                               ; preds = %39, %31
  br label %56

48:                                               ; preds = %28
  %49 = load ptr, ptr %4, align 8
  %50 = getelementptr inbounds nuw %struct.SDL_EVDEV_keyboard_state, ptr %49, i32 0, i32 4
  %51 = load i8, ptr %5, align 1
  %52 = zext i8 %51 to i64
  %53 = getelementptr inbounds nuw [9 x i8], ptr %50, i64 0, i64 %52
  %54 = load i8, ptr %53, align 1
  %55 = add i8 %54, 1
  store i8 %55, ptr %53, align 1
  br label %56

56:                                               ; preds = %48, %47
  %57 = load ptr, ptr %4, align 8
  %58 = getelementptr inbounds nuw %struct.SDL_EVDEV_keyboard_state, ptr %57, i32 0, i32 4
  %59 = load i8, ptr %5, align 1
  %60 = zext i8 %59 to i64
  %61 = getelementptr inbounds nuw [9 x i8], ptr %58, i64 0, i64 %60
  %62 = load i8, ptr %61, align 1
  %63 = icmp ne i8 %62, 0
  br i1 %63, label %64, label %74

64:                                               ; preds = %56
  %65 = load i8, ptr %5, align 1
  %66 = zext i8 %65 to i32
  %67 = shl i32 1, %66
  %68 = load ptr, ptr %4, align 8
  %69 = getelementptr inbounds nuw %struct.SDL_EVDEV_keyboard_state, ptr %68, i32 0, i32 13
  %70 = load i8, ptr %69, align 8
  %71 = sext i8 %70 to i32
  %72 = or i32 %71, %67
  %73 = trunc i32 %72 to i8
  store i8 %73, ptr %69, align 8
  br label %85

74:                                               ; preds = %56
  %75 = load i8, ptr %5, align 1
  %76 = zext i8 %75 to i32
  %77 = shl i32 1, %76
  %78 = xor i32 %77, -1
  %79 = load ptr, ptr %4, align 8
  %80 = getelementptr inbounds nuw %struct.SDL_EVDEV_keyboard_state, ptr %79, i32 0, i32 13
  %81 = load i8, ptr %80, align 8
  %82 = sext i8 %81 to i32
  %83 = and i32 %82, %78
  %84 = trunc i32 %83 to i8
  store i8 %84, ptr %80, align 8
  br label %85

85:                                               ; preds = %74, %64
  %86 = load i8, ptr %6, align 1
  %87 = sext i8 %86 to i32
  %88 = icmp ne i32 %87, 0
  br i1 %88, label %89, label %108

89:                                               ; preds = %85
  %90 = load ptr, ptr %4, align 8
  %91 = getelementptr inbounds nuw %struct.SDL_EVDEV_keyboard_state, ptr %90, i32 0, i32 13
  %92 = load i8, ptr %91, align 8
  %93 = sext i8 %92 to i32
  %94 = load i32, ptr %7, align 4
  %95 = icmp ne i32 %93, %94
  br i1 %95, label %96, label %108

96:                                               ; preds = %89
  %97 = load ptr, ptr %4, align 8
  %98 = getelementptr inbounds nuw %struct.SDL_EVDEV_keyboard_state, ptr %97, i32 0, i32 6
  %99 = load i32, ptr %98, align 4
  %100 = icmp ne i32 %99, -1
  br i1 %100, label %101, label %108

101:                                              ; preds = %96
  %102 = load ptr, ptr %4, align 8
  %103 = load ptr, ptr %4, align 8
  %104 = getelementptr inbounds nuw %struct.SDL_EVDEV_keyboard_state, ptr %103, i32 0, i32 6
  %105 = load i32, ptr %104, align 4
  call void @put_utf8(ptr noundef %102, i32 noundef %105)
  %106 = load ptr, ptr %4, align 8
  %107 = getelementptr inbounds nuw %struct.SDL_EVDEV_keyboard_state, ptr %106, i32 0, i32 6
  store i32 -1, ptr %107, align 4
  br label %108

108:                                              ; preds = %101, %96, %89, %85
  store i32 0, ptr %8, align 4
  br label %109

109:                                              ; preds = %108, %17
  call void @llvm.lifetime.end.p0(i64 4, ptr %7) #7
  %110 = load i32, ptr %8, align 4
  switch i32 %110, label %112 [
    i32 0, label %111
    i32 1, label %111
  ]

111:                                              ; preds = %109, %109
  ret void

112:                                              ; preds = %109
  unreachable
}

; Function Attrs: nounwind uwtable
define internal void @k_slock(ptr noundef %0, i8 noundef zeroext %1, i8 noundef signext %2) #0 {
  %4 = alloca ptr, align 8
  %5 = alloca i8, align 1
  %6 = alloca i8, align 1
  store ptr %0, ptr %4, align 8
  store i8 %1, ptr %5, align 1
  store i8 %2, ptr %6, align 1
  %7 = load ptr, ptr %4, align 8
  %8 = load i8, ptr %5, align 1
  %9 = load i8, ptr %6, align 1
  call void @k_shift(ptr noundef %7, i8 noundef zeroext %8, i8 noundef signext %9)
  %10 = load i8, ptr %6, align 1
  %11 = sext i8 %10 to i32
  %12 = icmp ne i32 %11, 0
  br i1 %12, label %18, label %13

13:                                               ; preds = %3
  %14 = load ptr, ptr %4, align 8
  %15 = getelementptr inbounds nuw %struct.SDL_EVDEV_keyboard_state, ptr %14, i32 0, i32 9
  %16 = load i8, ptr %15, align 4, !range !3, !noundef !4
  %17 = trunc i8 %16 to i1
  br i1 %17, label %18, label %19

18:                                               ; preds = %13, %3
  br label %45

19:                                               ; preds = %13
  %20 = load ptr, ptr %4, align 8
  %21 = load i8, ptr %5, align 1
  %22 = zext i8 %21 to i32
  call void @chg_vc_kbd_slock(ptr noundef %20, i32 noundef %22)
  %23 = load ptr, ptr %4, align 8
  %24 = getelementptr inbounds nuw %struct.SDL_EVDEV_keyboard_state, ptr %23, i32 0, i32 3
  %25 = load ptr, ptr %24, align 8
  %26 = load ptr, ptr %4, align 8
  %27 = getelementptr inbounds nuw %struct.SDL_EVDEV_keyboard_state, ptr %26, i32 0, i32 10
  %28 = load i8, ptr %27, align 1
  %29 = zext i8 %28 to i32
  %30 = load ptr, ptr %4, align 8
  %31 = getelementptr inbounds nuw %struct.SDL_EVDEV_keyboard_state, ptr %30, i32 0, i32 11
  %32 = load i8, ptr %31, align 2
  %33 = zext i8 %32 to i32
  %34 = xor i32 %29, %33
  %35 = sext i32 %34 to i64
  %36 = getelementptr inbounds ptr, ptr %25, i64 %35
  %37 = load ptr, ptr %36, align 8
  %38 = icmp ne ptr %37, null
  br i1 %38, label %45, label %39

39:                                               ; preds = %19
  %40 = load ptr, ptr %4, align 8
  %41 = getelementptr inbounds nuw %struct.SDL_EVDEV_keyboard_state, ptr %40, i32 0, i32 11
  store i8 0, ptr %41, align 2
  %42 = load ptr, ptr %4, align 8
  %43 = load i8, ptr %5, align 1
  %44 = zext i8 %43 to i32
  call void @chg_vc_kbd_slock(ptr noundef %42, i32 noundef %44)
  br label %45

45:                                               ; preds = %18, %39, %19
  ret void
}