; Function Attrs: nounwind uwtable
define internal void @k_slock(ptr noundef captures(none) %0, i8 noundef zeroext %1, i8 noundef signext %2) #0 {
  %4 = getelementptr inbounds nuw i8, ptr %0, i64 56
  %5 = load i8, ptr %4, align 8
  %6 = getelementptr inbounds nuw i8, ptr %0, i64 52
  %7 = load i8, ptr %6, align 4, !range !3, !noundef !4
  %8 = trunc nuw i8 %7 to i1
  br i1 %8, label %k_shift.exit, label %9

9:                                                ; preds = %3
  %10 = icmp eq i8 %1, 8
  %.not.i = icmp eq i8 %2, 0
  br i1 %10, label %11, label %18

11:                                               ; preds = %9
  br i1 %.not.i, label %.thread.i, label %.thread38.i

.thread.i:                                        ; preds = %11
  %12 = getelementptr inbounds nuw i8, ptr %0, i64 55
  %13 = load i8, ptr %12, align 1
  %14 = and i8 %13, -5
  store i8 %14, ptr %12, align 1
  %15 = load i32, ptr %0, align 8
  %16 = zext i8 %14 to i64
  %17 = tail call i32 (i32, i64, ...) @ioctl(i32 noundef %15, i64 noundef 19250, i64 noundef %16) #12
  br label %25

18:                                               ; preds = %9
  br i1 %.not.i, label %25, label %.thread38.i

.thread38.i:                                      ; preds = %18, %11
  %.041.i = phi i8 [ %1, %18 ], [ 0, %11 ]
  %19 = getelementptr inbounds nuw i8, ptr %0, i64 24
  %20 = zext i8 %.041.i to i64
  %21 = getelementptr inbounds nuw [9 x i8], ptr %19, i64 0, i64 %20
  %22 = load i8, ptr %21, align 1
  %.not27.i = icmp eq i8 %22, 0
  br i1 %.not27.i, label %31, label %23

23:                                               ; preds = %.thread38.i
  %24 = add i8 %22, -1
  store i8 %24, ptr %21, align 1
  br label %31

25:                                               ; preds = %18, %.thread.i
  %.035.i = phi i8 [ 0, %.thread.i ], [ %1, %18 ]
  %26 = getelementptr inbounds nuw i8, ptr %0, i64 24
  %27 = zext i8 %.035.i to i64
  %28 = getelementptr inbounds nuw [9 x i8], ptr %26, i64 0, i64 %27
  %29 = load i8, ptr %28, align 1
  %30 = add i8 %29, 1
  store i8 %30, ptr %28, align 1
  br label %31

31:                                               ; preds = %25, %23, %.thread38.i
  %.pre-phi.i = phi i64 [ %20, %.thread38.i ], [ %20, %23 ], [ %27, %25 ]
  %.not2636.i = phi i1 [ false, %.thread38.i ], [ false, %23 ], [ true, %25 ]
  %.034.i = phi i8 [ %.041.i, %.thread38.i ], [ %.041.i, %23 ], [ %.035.i, %25 ]
  %32 = getelementptr inbounds nuw i8, ptr %0, i64 24
  %33 = getelementptr inbounds nuw [9 x i8], ptr %32, i64 0, i64 %.pre-phi.i
  %34 = load i8, ptr %33, align 1
  %.not28.i = icmp eq i8 %34, 0
  %35 = zext nneg i8 %.034.i to i32
  %36 = shl nuw i32 1, %35
  %37 = load i8, ptr %4, align 8
  %38 = trunc i32 %36 to i8
  %39 = xor i8 %38, -1
  %40 = and i8 %37, %39
  %41 = or i8 %37, %38
  %storemerge.i = select i1 %.not28.i, i8 %40, i8 %41
  store i8 %storemerge.i, ptr %4, align 8
  %.not30.i = icmp eq i8 %storemerge.i, %5
  %or.cond.i = select i1 %.not2636.i, i1 true, i1 %.not30.i
  br i1 %or.cond.i, label %k_shift.exit, label %42

42:                                               ; preds = %31
  %43 = getelementptr inbounds nuw i8, ptr %0, i64 36
  %44 = load i32, ptr %43, align 4
  %.not31.i = icmp eq i32 %44, -1
  br i1 %.not31.i, label %k_shift.exit, label %45

45:                                               ; preds = %42
  tail call fastcc void @put_utf8(ptr noundef nonnull %0, i32 noundef %44)
  store i32 -1, ptr %43, align 4
  br label %k_shift.exit

k_shift.exit:                                     ; preds = %3, %31, %42, %45
  %.not = icmp eq i8 %2, 0
  br i1 %.not, label %46, label %65

46:                                               ; preds = %k_shift.exit
  %47 = load i8, ptr %6, align 4, !range !3, !noundef !4
  %48 = trunc nuw i8 %47 to i1
  br i1 %48, label %65, label %49

49:                                               ; preds = %46
  %50 = zext nneg i8 %1 to i32
  %51 = shl nuw i32 1, %50
  %52 = getelementptr inbounds nuw i8, ptr %0, i64 54
  %53 = load i8, ptr %52, align 2
  %54 = trunc i32 %51 to i8
  %55 = xor i8 %53, %54
  store i8 %55, ptr %52, align 2
  %56 = getelementptr inbounds nuw i8, ptr %0, i64 16
  %57 = load ptr, ptr %56, align 8
  %58 = getelementptr inbounds nuw i8, ptr %0, i64 53
  %59 = load i8, ptr %58, align 1
  %60 = xor i8 %59, %55
  %61 = zext i8 %60 to i64
  %62 = getelementptr inbounds nuw ptr, ptr %57, i64 %61
  %63 = load ptr, ptr %62, align 8
  %.not12 = icmp eq ptr %63, null
  br i1 %.not12, label %64, label %65

64:                                               ; preds = %49
  store i8 %54, ptr %52, align 2
  br label %65

65:                                               ; preds = %k_shift.exit, %46, %64, %49
  ret void
}